target datalayout = "e-m:e-p270:32:32-p271:32:32-p272:64:64-i64:64-i128:128-f80:128-n8:16:32:64-S128"
target triple = "x86_64-pc-linux-gnu"

%struct.FT_ListRec_ = type { ptr, ptr }
%struct.FT_CharMapRec_ = type { ptr, i32, i16, i16 }
%struct.T42_FaceRec_ = type { %struct.FT_FaceRec_, %struct.T1_FontRec_, ptr, ptr, ptr, i64, ptr, [2 x %struct.FT_CharMapRec_], [2 x ptr], %struct.PS_UnicodesRec_ }
%struct.FT_FaceRec_ = type { i64, i64, i64, i64, i64, ptr, ptr, i32, ptr, i32, ptr, %struct.FT_Generic_, %struct.FT_BBox_, i16, i16, i16, i16, i16, i16, i16, i16, ptr, ptr, ptr, ptr, ptr, ptr, %struct.FT_ListRec_, %struct.FT_Generic_, ptr, ptr }
%struct.FT_BBox_ = type { i64, i64, i64, i64 }
%struct.FT_Generic_ = type { ptr, ptr }
%struct.T1_FontRec_ = type { %struct.PS_FontInfoRec_, %struct.PS_FontExtraRec_, %struct.PS_PrivateRec_, ptr, i32, %struct.T1_EncodingRecRec_, ptr, ptr, ptr, i32, ptr, ptr, ptr, i32, ptr, ptr, ptr, i8, i8, %struct.FT_Matrix_, %struct.FT_Vector_, %struct.FT_BBox_, i64, i64 }
%struct.PS_FontInfoRec_ = type { ptr, ptr, ptr, ptr, ptr, i64, i8, i16, i16 }
%struct.PS_FontExtraRec_ = type { i16 }
%struct.PS_PrivateRec_ = type { i32, i32, i8, i8, i8, i8, [14 x i16], [10 x i16], [14 x i16], [10 x i16], i64, i32, i32, [1 x i16], [1 x i16], i8, i8, i8, i8, [13 x i16], [13 x i16], i64, i64, i64, [2 x i16] }
%struct.T1_EncodingRecRec_ = type { i32, i32, i32, ptr, ptr }
%struct.FT_Matrix_ = type { i64, i64, i64, i64 }
%struct.FT_Vector_ = type { i64, i64 }
%struct.PS_UnicodesRec_ = type { %struct.FT_CMapRec_, i32, ptr }
%struct.FT_CMapRec_ = type { %struct.FT_CharMapRec_, ptr }

; Function Attrs: nounwind uwtable
define internal i32 @t42_get_glyph_name(ptr noundef %0, i32 noundef %1, ptr noundef %2, i32 noundef %3) #0 {
  %5 = alloca ptr, align 8
  %6 = alloca i32, align 4
  %7 = alloca ptr, align 8
  %8 = alloca i32, align 4
  %9 = alloca ptr, align 8
  store ptr %0, ptr %5, align 8, !tbaa !27
  store i32 %1, ptr %6, align 4, !tbaa !29
  store ptr %2, ptr %7, align 8, !tbaa !71
  store i32 %3, ptr %8, align 4, !tbaa !29
  call void @llvm.lifetime.start.p0(i64 8, ptr %9) #7
  %10 = load ptr, ptr %5, align 8, !tbaa !27
  store ptr %10, ptr %9, align 8, !tbaa !33
  %11 = load ptr, ptr %7, align 8, !tbaa !71
  %12 = load ptr, ptr %9, align 8, !tbaa !33
  %13 = getelementptr inbounds nuw %struct.T42_FaceRec_, ptr %12, i32 0, i32 1
  %14 = getelementptr inbounds nuw %struct.T1_FontRec_, ptr %13, i32 0, i32 14
  %15 = load ptr, ptr %14, align 8, !tbaa !207
  %16 = load i32, ptr %6, align 4, !tbaa !29
  %17 = zext i32 %16 to i64
  %18 = getelementptr inbounds nuw ptr, ptr %15, i64 %17
  %19 = load ptr, ptr %18, align 8, !tbaa !23
  %20 = load i32, ptr %8, align 4, !tbaa !29
  %21 = zext i32 %20 to i64
  %22 = call i32 @ft_mem_strcpyn(ptr noundef %11, ptr noundef %19, i64 noundef %21)
  call void @llvm.lifetime.end.p0(i64 8, ptr %9) #7
  ret i32 0
}