; Function Attrs: nounwind uwtable
define internal noundef i32 @t42_get_glyph_name(ptr noundef readonly captures(none) %0, i32 noundef %1, ptr noundef %2, i32 noundef %3) #0 {
  %5 = getelementptr inbounds nuw i8, ptr %0, i64 648
  %6 = load ptr, ptr %5, align 8, !tbaa !238
  %7 = zext i32 %1 to i64
  %8 = getelementptr inbounds nuw ptr, ptr %6, i64 %7
  %9 = load ptr, ptr %8, align 8, !tbaa !129
  %10 = zext i32 %3 to i64
  %11 = tail call i32 @ft_mem_strcpyn(ptr noundef %2, ptr noundef %9, i64 noundef %10) #13
  ret i32 0
}